target datalayout = "e-m:e-p270:32:32-p271:32:32-p272:64:64-i64:64-i128:128-f80:128-n8:16:32:64-S128"
target triple = "x86_64-pc-linux-gnu"

%struct.Table = type { ptr, i8, i8, i8, i8, i32, ptr, ptr, ptr, ptr }

; Function Attrs: nounwind uwtable
define hidden void @luaH_resizearray(ptr noundef %0, ptr noundef %1, i32 noundef %2) #0 {
  %4 = alloca ptr, align 8
  %5 = alloca ptr, align 8
  %6 = alloca i32, align 4
  %7 = alloca i32, align 4
  store ptr %0, ptr %4, align 8, !tbaa !4
  store ptr %1, ptr %5, align 8, !tbaa !9
  store i32 %2, ptr %6, align 4, !tbaa !19
  call void @llvm.lifetime.start.p0(i64 4, ptr %7) #8
  %8 = load ptr, ptr %5, align 8, !tbaa !9
  %9 = getelementptr inbounds nuw %struct.Table, ptr %8, i32 0, i32 3
  %10 = load i8, ptr %9, align 2, !tbaa !30
  %11 = zext i8 %10 to i32
  %12 = and i32 %11, 64
  %13 = icmp ne i32 %12, 0
  br i1 %13, label %14, label %15

14:                                               ; preds = %3
  br label %21

15:                                               ; preds = %3
  %16 = load ptr, ptr %5, align 8, !tbaa !9
  %17 = getelementptr inbounds nuw %struct.Table, ptr %16, i32 0, i32 4
  %18 = load i8, ptr %17, align 1, !tbaa !27
  %19 = zext i8 %18 to i32
  %20 = shl i32 1, %19
  br label %21

21:                                               ; preds = %15, %14
  %22 = phi i32 [ 0, %14 ], [ %20, %15 ]
  store i32 %22, ptr %7, align 4, !tbaa !19
  %23 = load ptr, ptr %4, align 8, !tbaa !4
  %24 = load ptr, ptr %5, align 8, !tbaa !9
  %25 = load i32, ptr %6, align 4, !tbaa !19
  %26 = load i32, ptr %7, align 4, !tbaa !19
  call void @luaH_resize(ptr noundef %23, ptr noundef %24, i32 noundef %25, i32 noundef %26)
  call void @llvm.lifetime.end.p0(i64 4, ptr %7) #8
  ret void
}