; Function Attrs: nounwind uwtable
define hidden void @luaH_resizearray(ptr noundef %0, ptr noundef captures(none) %1, i32 noundef %2) local_unnamed_addr #0 {
  %4 = getelementptr inbounds nuw i8, ptr %1, i64 10
  %5 = load i8, ptr %4, align 2, !tbaa !21
  %6 = and i8 %5, 64
  %.not = icmp eq i8 %6, 0
  br i1 %.not, label %7, label %12

7:                                                ; preds = %3
  %8 = getelementptr inbounds nuw i8, ptr %1, i64 11
  %9 = load i8, ptr %8, align 1, !tbaa !20
  %10 = zext nneg i8 %9 to i32
  %11 = shl nuw i32 1, %10
  br label %12

12:                                               ; preds = %3, %7
  %13 = phi i32 [ %11, %7 ], [ 0, %3 ]
  tail call void @luaH_resize(ptr noundef %0, ptr noundef nonnull %1, i32 noundef %2, i32 noundef %13)
  ret void
}